(lp0
(i__main__
Vehiculo
p1
(dp2
S'frenar'
p3
I00
sS'acelerar'
p4
I00
sS'modelo'
p5
S'323'
p6
sS'marca'
p7
S'renault'
p8
sS'ensendido'
p9
I00
sba(i__main__
Vehiculo
p10
(dp11
g3
I00
sg4
I00
sg5
S'porqueria'
p12
sg7
S'chanda'
p13
sg9
I00
sba(i__main__
Vehiculo
p14
(dp15
g3
I00
sg4
I00
sg5
S'masporqueria'
p16
sg7
S'maschanda'
p17
sg9
I00
sba.